; Function Attrs: inlinehint mustprogress uwtable
define internal fastcc noundef zeroext i1 @"_ZZN4lean7compileERKNS_16elab_environmentERKNS_7optionsENS_8list_refINS_4nameEEEENK3$_0clERKS7_"(ptr noundef nonnull readonly align 8 captures(none) dereferenceable(8) %0, ptr noundef nonnull align 8 dereferenceable(8) %1) unnamed_addr #8 align 2 personality ptr @__gxx_personality_v0 {
  %3 = alloca %"class.lean::environment", align 8
  %4 = alloca %"class.lean::environment", align 8
  %5 = alloca %"class.lean::constant_info", align 8
  call void @llvm.lifetime.start.p0(i64 8, ptr nonnull %4) #18
  %6 = load ptr, ptr %0, align 8, !tbaa !210
  call void @_ZNK4lean16elab_environment13to_kernel_envEv(ptr dead_on_unwind nonnull writable sret(%"class.lean::environment") align 8 %4, ptr noundef nonnull align 8 dereferenceable(8) %6)
  call void @llvm.lifetime.start.p0(i64 8, ptr nonnull %5) #18
  %7 = load ptr, ptr %0, align 8, !tbaa !210
  call void @llvm.lifetime.start.p0(i64 8, ptr nonnull %3) #18, !noalias !212
  invoke void @_ZNK4lean16elab_environment13to_kernel_envEv(ptr dead_on_unwind nonnull writable sret(%"class.lean::environment") align 8 %3, ptr noundef nonnull align 8 dereferenceable(8) %7)
          to label %.noexc unwind label %60

.noexc:                                           ; preds = %2
  invoke void @_ZNK4lean11environment3getERKNS_4nameE(ptr dead_on_unwind nonnull writable sret(%"class.lean::constant_info") align 8 %5, ptr noundef nonnull align 8 dereferenceable(8) %3, ptr noundef nonnull align 8 dereferenceable(8) %1)
          to label %8 unwind label %22

8:                                                ; preds = %.noexc
  %9 = load ptr, ptr %3, align 8, !tbaa !13, !noalias !212
  %10 = ptrtoint ptr %9 to i64
  %11 = and i64 %10, 1
  %.not.i.i.i = icmp eq i64 %11, 0
  br i1 %.not.i.i.i, label %12, label %24

12:                                               ; preds = %8
  %13 = load i32, ptr %9, align 4, !tbaa !25
  %14 = icmp sgt i32 %13, 1
  br i1 %14, label %15, label %17, !prof !28

15:                                               ; preds = %12
  %16 = add nsw i32 %13, -1
  store i32 %16, ptr %9, align 4, !tbaa !25
  br label %24

17:                                               ; preds = %12
  %.not.i.i.i.i = icmp eq i32 %13, 0
  br i1 %.not.i.i.i.i, label %24, label %18

18:                                               ; preds = %17
  invoke void @lean_dec_ref_cold(ptr noundef nonnull %9)
          to label %24 unwind label %19

19:                                               ; preds = %18
  %20 = landingpad { ptr, i32 }
          catch ptr null
  %21 = extractvalue { ptr, i32 } %20, 0
  call void @__clang_call_terminate(ptr %21) #20
  unreachable

22:                                               ; preds = %.noexc
  %23 = landingpad { ptr, i32 }
          cleanup
  call void @_ZN4lean10object_refD2Ev(ptr noundef nonnull align 8 dereferenceable(8) %3) #18
  call void @llvm.lifetime.end.p0(i64 8, ptr nonnull %3) #18, !noalias !212
  br label %.body

24:                                               ; preds = %8, %15, %17, %18
  call void @llvm.lifetime.end.p0(i64 8, ptr nonnull %3) #18, !noalias !212
  %25 = load ptr, ptr %5, align 8, !tbaa !13
  %26 = getelementptr inbounds nuw i8, ptr %25, i64 8
  %27 = load ptr, ptr %26, align 8, !tbaa !13
  %28 = getelementptr inbounds nuw i8, ptr %27, i64 8
  %29 = load ptr, ptr %28, align 8, !tbaa !13
  %30 = getelementptr inbounds nuw i8, ptr %29, i64 24
  %31 = invoke noundef zeroext i1 @_ZN4lean18is_irrelevant_typeERKNS_11environmentERKNS_4exprE(ptr noundef nonnull align 8 dereferenceable(8) %4, ptr noundef nonnull align 8 dereferenceable(8) %30)
          to label %32 unwind label %62

32:                                               ; preds = %24
  %33 = load ptr, ptr %5, align 8, !tbaa !13
  %34 = ptrtoint ptr %33 to i64
  %35 = and i64 %34, 1
  %.not.i.i = icmp eq i64 %35, 0
  br i1 %.not.i.i, label %36, label %_ZN4lean10object_refD2Ev.exit

36:                                               ; preds = %32
  %37 = load i32, ptr %33, align 4, !tbaa !25
  %38 = icmp sgt i32 %37, 1
  br i1 %38, label %39, label %41, !prof !28

39:                                               ; preds = %36
  %40 = add nsw i32 %37, -1
  store i32 %40, ptr %33, align 4, !tbaa !25
  br label %_ZN4lean10object_refD2Ev.exit

41:                                               ; preds = %36
  %.not.i.i.i5 = icmp eq i32 %37, 0
  br i1 %.not.i.i.i5, label %_ZN4lean10object_refD2Ev.exit, label %42

42:                                               ; preds = %41
  invoke void @lean_dec_ref_cold(ptr noundef nonnull %33)
          to label %_ZN4lean10object_refD2Ev.exit unwind label %43

43:                                               ; preds = %42
  %44 = landingpad { ptr, i32 }
          catch ptr null
  %45 = extractvalue { ptr, i32 } %44, 0
  call void @__clang_call_terminate(ptr %45) #20
  unreachable

_ZN4lean10object_refD2Ev.exit:                    ; preds = %32, %39, %41, %42
  call void @llvm.lifetime.end.p0(i64 8, ptr nonnull %5) #18
  %46 = load ptr, ptr %4, align 8, !tbaa !13
  %47 = ptrtoint ptr %46 to i64
  %48 = and i64 %47, 1
  %.not.i.i6 = icmp eq i64 %48, 0
  br i1 %.not.i.i6, label %49, label %_ZN4lean10object_refD2Ev.exit8

49:                                               ; preds = %_ZN4lean10object_refD2Ev.exit
  %50 = load i32, ptr %46, align 4, !tbaa !25
  %51 = icmp sgt i32 %50, 1
  br i1 %51, label %52, label %54, !prof !28

52:                                               ; preds = %49
  %53 = add nsw i32 %50, -1
  store i32 %53, ptr %46, align 4, !tbaa !25
  br label %_ZN4lean10object_refD2Ev.exit8

54:                                               ; preds = %49
  %.not.i.i.i7 = icmp eq i32 %50, 0
  br i1 %.not.i.i.i7, label %_ZN4lean10object_refD2Ev.exit8, label %55

55:                                               ; preds = %54
  invoke void @lean_dec_ref_cold(ptr noundef nonnull %46)
          to label %_ZN4lean10object_refD2Ev.exit8 unwind label %56

56:                                               ; preds = %55
  %57 = landingpad { ptr, i32 }
          catch ptr null
  %58 = extractvalue { ptr, i32 } %57, 0
  call void @__clang_call_terminate(ptr %58) #20
  unreachable

_ZN4lean10object_refD2Ev.exit8:                   ; preds = %_ZN4lean10object_refD2Ev.exit, %52, %54, %55
  %59 = xor i1 %31, true
  call void @llvm.lifetime.end.p0(i64 8, ptr nonnull %4) #18
  ret i1 %59

60:                                               ; preds = %2
  %61 = landingpad { ptr, i32 }
          cleanup
  br label %.body

62:                                               ; preds = %24
  %63 = landingpad { ptr, i32 }
          cleanup
  call void @_ZN4lean10object_refD2Ev(ptr noundef nonnull align 8 dereferenceable(8) %5) #18
  br label %.body

.body:                                            ; preds = %60, %22, %62
  %.pn = phi { ptr, i32 } [ %63, %62 ], [ %61, %60 ], [ %23, %22 ]
  call void @llvm.lifetime.end.p0(i64 8, ptr nonnull %5) #18
  call void @_ZN4lean10object_refD2Ev(ptr noundef nonnull align 8 dereferenceable(8) %4) #18
  call void @llvm.lifetime.end.p0(i64 8, ptr nonnull %4) #18
  resume { ptr, i32 } %.pn
}